target datalayout = "e-m:e-p270:32:32-p271:32:32-p272:64:64-i64:64-i128:128-f80:128-n8:16:32:64-S128"
target triple = "x86_64-pc-linux-gnu"

%"class.boost::function" = type { %"class.boost::function_n" }
%"class.boost::function_n" = type { %"class.boost::function_base" }
%"class.boost::function_base" = type { ptr, %"union.boost::detail::function::function_buffer" }
%"union.boost::detail::function::function_buffer" = type { %"union.boost::detail::function::function_buffer_members" }
%"union.boost::detail::function::function_buffer_members" = type { %"struct.boost::detail::function::function_buffer_members::bound_memfunc_ptr_t" }
%"struct.boost::detail::function::function_buffer_members::bound_memfunc_ptr_t" = type { { i64, i64 }, ptr }
%"struct.boost::detail::forward" = type { ptr }

; Function Attrs: mustprogress nounwind uwtable
define linkonce_odr hidden void @_ZNK5boost6detail8function12basic_vtableIiJEE14assign_functorINS0_7forwardEEEvT_RNS1_15function_bufferESt17integral_constantIbLb1EE(ptr noundef nonnull align 8 dereferenceable(16) %0, ptr %1, ptr noundef nonnull align 8 dereferenceable(24) %2) #5 comdat align 2 {
  %4 = alloca %"struct.boost::detail::forward", align 8
  %5 = alloca ptr, align 8
  %6 = alloca ptr, align 8
  %7 = getelementptr inbounds nuw %"struct.boost::detail::forward", ptr %4, i32 0, i32 0
  store ptr %1, ptr %7, align 8
  store ptr %0, ptr %5, align 8, !tbaa !3
  store ptr %2, ptr %6, align 8, !tbaa !3
  %8 = load ptr, ptr %6, align 8, !tbaa !3
  %9 = getelementptr inbounds [24 x i8], ptr %8, i64 0, i64 0
  call void @llvm.memcpy.p0.p0.i64(ptr align 8 %9, ptr align 8 %4, i64 8, i1 false), !tbaa.struct !54
  ret void
}

; Function Attrs: inlinehint mustprogress nounwind uwtable
define linkonce_odr hidden noundef zeroext i1 @_ZN5boost6detail8function16has_empty_targetEz(...) #17 comdat {
  ret i1 false
}

; Function Attrs: inlinehint mustprogress nounwind uwtable
define linkonce_odr hidden noundef ptr @_ZN5boost9addressofINS_6detail7forwardEEEPT_RS3_(ptr noundef nonnull align 8 dereferenceable(8) %0) #17 comdat {
  %2 = alloca ptr, align 8
  store ptr %0, ptr %2, align 8, !tbaa !3
  %3 = load ptr, ptr %2, align 8, !tbaa !3
  ret ptr %3
}

; Function Attrs: mustprogress uwtable
define linkonce_odr hidden noundef zeroext i1 @_ZNK5boost6detail8function12basic_vtableIiJEE9assign_toINS0_7forwardEEEbT_RNS1_15function_bufferENS1_16function_obj_tagE(ptr noundef nonnull align 8 dereferenceable(16) %0, ptr %1, ptr noundef nonnull align 8 dereferenceable(24) %2) #4 comdat align 2 {
  %4 = alloca i1, align 1
  %5 = alloca %"struct.boost::detail::forward", align 8
  %6 = alloca ptr, align 8
  %7 = alloca ptr, align 8
  %8 = alloca %"struct.boost::detail::forward", align 8
  %9 = getelementptr inbounds nuw %"struct.boost::detail::forward", ptr %5, i32 0, i32 0
  store ptr %1, ptr %9, align 8
  store ptr %0, ptr %6, align 8, !tbaa !3
  store ptr %2, ptr %7, align 8, !tbaa !3
  %10 = load ptr, ptr %6, align 8
  %11 = call noundef ptr @_ZN5boost9addressofINS_6detail7forwardEEEPT_RS3_(ptr noundef nonnull align 8 dereferenceable(8) %5) #3
  %12 = call noundef zeroext i1 (...) @_ZN5boost6detail8function16has_empty_targetEz(ptr noundef %11)
  br i1 %12, label %17, label %13

13:                                               ; preds = %3
  call void @llvm.memcpy.p0.p0.i64(ptr align 8 %8, ptr align 8 %5, i64 8, i1 false), !tbaa.struct !54
  %14 = load ptr, ptr %7, align 8, !tbaa !3
  %15 = getelementptr inbounds nuw %"struct.boost::detail::forward", ptr %8, i32 0, i32 0
  %16 = load ptr, ptr %15, align 8
  call void @_ZNK5boost6detail8function12basic_vtableIiJEE14assign_functorINS0_7forwardEEEvT_RNS1_15function_bufferESt17integral_constantIbLb1EE(ptr noundef nonnull align 8 dereferenceable(16) %10, ptr %16, ptr noundef nonnull align 8 dereferenceable(24) %14)
  store i1 true, ptr %4, align 1
  br label %18

17:                                               ; preds = %3
  store i1 false, ptr %4, align 1
  br label %18

18:                                               ; preds = %17, %13
  %19 = load i1, ptr %4, align 1
  ret i1 %19
}

; Function Attrs: mustprogress uwtable
define linkonce_odr hidden noundef zeroext i1 @_ZNK5boost6detail8function12basic_vtableIiJEE9assign_toINS0_7forwardEEEbT_RNS1_15function_bufferE(ptr noundef nonnull align 8 dereferenceable(16) %0, ptr %1, ptr noundef nonnull align 8 dereferenceable(24) %2) #4 comdat align 2 {
  %4 = alloca %"struct.boost::detail::forward", align 8
  %5 = alloca ptr, align 8
  %6 = alloca ptr, align 8
  %7 = alloca %"struct.boost::detail::forward", align 8
  %8 = getelementptr inbounds nuw %"struct.boost::detail::forward", ptr %4, i32 0, i32 0
  store ptr %1, ptr %8, align 8
  store ptr %0, ptr %5, align 8, !tbaa !3
  store ptr %2, ptr %6, align 8, !tbaa !3
  %9 = load ptr, ptr %5, align 8
  call void @llvm.memcpy.p0.p0.i64(ptr align 8 %7, ptr align 8 %4, i64 8, i1 false), !tbaa.struct !54
  %10 = load ptr, ptr %6, align 8, !tbaa !3
  %11 = getelementptr inbounds nuw %"struct.boost::detail::forward", ptr %7, i32 0, i32 0
  %12 = load ptr, ptr %11, align 8
  %13 = call noundef zeroext i1 @_ZNK5boost6detail8function12basic_vtableIiJEE9assign_toINS0_7forwardEEEbT_RNS1_15function_bufferENS1_16function_obj_tagE(ptr noundef nonnull align 8 dereferenceable(16) %9, ptr %12, ptr noundef nonnull align 8 dereferenceable(24) %10)
  ret i1 %13
}

; Function Attrs: mustprogress uwtable
define linkonce_odr hidden void @_ZN5boost10function_nIiJEE9assign_toINS_6detail7forwardEEEvT_(ptr noundef nonnull align 8 dereferenceable(32) %0, ptr %1) #4 comdat align 2 {
  %3 = alloca %"struct.boost::detail::forward", align 8
  %4 = alloca ptr, align 8
  %5 = alloca %"struct.boost::detail::forward", align 8
  %6 = alloca i64, align 8
  %7 = getelementptr inbounds nuw %"struct.boost::detail::forward", ptr %3, i32 0, i32 0
  store ptr %1, ptr %7, align 8
  store ptr %0, ptr %4, align 8, !tbaa !3
  %8 = load ptr, ptr %4, align 8
  call void @llvm.memcpy.p0.p0.i64(ptr align 8 %5, ptr align 8 %3, i64 8, i1 false), !tbaa.struct !54
  %9 = getelementptr inbounds nuw %"class.boost::function_base", ptr %8, i32 0, i32 1
  %10 = getelementptr inbounds nuw %"struct.boost::detail::forward", ptr %5, i32 0, i32 0
  %11 = load ptr, ptr %10, align 8
  %12 = call noundef zeroext i1 @_ZNK5boost6detail8function12basic_vtableIiJEE9assign_toINS0_7forwardEEEbT_RNS1_15function_bufferE(ptr noundef nonnull align 8 dereferenceable(16) @_ZZN5boost10function_nIiJEE9assign_toINS_6detail7forwardEEEvT_E13stored_vtable, ptr %11, ptr noundef nonnull align 8 dereferenceable(24) %9)
  br i1 %12, label %13, label %19

13:                                               ; preds = %2
  call void @llvm.lifetime.start.p0(i64 8, ptr %6) #3
  store i64 ptrtoint (ptr @_ZZN5boost10function_nIiJEE9assign_toINS_6detail7forwardEEEvT_E13stored_vtable to i64), ptr %6, align 8, !tbaa !28
  %14 = load i64, ptr %6, align 8, !tbaa !28
  %15 = or i64 %14, 1
  store i64 %15, ptr %6, align 8, !tbaa !28
  %16 = load i64, ptr %6, align 8, !tbaa !28
  %17 = inttoptr i64 %16 to ptr
  %18 = getelementptr inbounds nuw %"class.boost::function_base", ptr %8, i32 0, i32 0
  store ptr %17, ptr %18, align 8, !tbaa !68
  call void @llvm.lifetime.end.p0(i64 8, ptr %6) #3
  br label %21

19:                                               ; preds = %2
  %20 = getelementptr inbounds nuw %"class.boost::function_base", ptr %8, i32 0, i32 0
  store ptr null, ptr %20, align 8, !tbaa !68
  br label %21

21:                                               ; preds = %19, %13
  ret void
}

; Function Attrs: mustprogress nounwind uwtable
define linkonce_odr hidden void @_ZN5boost13function_baseC2Ev(ptr noundef nonnull align 8 dereferenceable(32) %0) unnamed_addr #5 comdat align 2 {
  %2 = alloca ptr, align 8
  store ptr %0, ptr %2, align 8, !tbaa !3
  %3 = load ptr, ptr %2, align 8
  %4 = getelementptr inbounds nuw %"class.boost::function_base", ptr %3, i32 0, i32 0
  store ptr null, ptr %4, align 8, !tbaa !68
  ret void
}

; Function Attrs: mustprogress uwtable
define linkonce_odr hidden void @_ZN5boost10function_nIiJEEC2INS_6detail7forwardEEET_NSt9enable_ifIXntsr3std11is_integralIS5_EE5valueEiE4typeE(ptr noundef nonnull align 8 dereferenceable(32) %0, ptr %1, i32 noundef %2) unnamed_addr #4 comdat align 2 {
  %4 = alloca %"struct.boost::detail::forward", align 8
  %5 = alloca ptr, align 8
  %6 = alloca i32, align 4
  %7 = alloca %"struct.boost::detail::forward", align 8
  %8 = getelementptr inbounds nuw %"struct.boost::detail::forward", ptr %4, i32 0, i32 0
  store ptr %1, ptr %8, align 8
  store ptr %0, ptr %5, align 8, !tbaa !3
  store i32 %2, ptr %6, align 4, !tbaa !21
  %9 = load ptr, ptr %5, align 8
  call void @_ZN5boost13function_baseC2Ev(ptr noundef nonnull align 8 dereferenceable(32) %9)
  call void @llvm.memcpy.p0.p0.i64(ptr align 8 %7, ptr align 8 %4, i64 8, i1 false), !tbaa.struct !54
  %10 = getelementptr inbounds nuw %"struct.boost::detail::forward", ptr %7, i32 0, i32 0
  %11 = load ptr, ptr %10, align 8
  call void @_ZN5boost10function_nIiJEE9assign_toINS_6detail7forwardEEEvT_(ptr noundef nonnull align 8 dereferenceable(32) %9, ptr %11)
  ret void
}

; Function Attrs: mustprogress uwtable
define linkonce_odr hidden void @_ZN5boost8functionIFivEEC2INS_6detail7forwardEEET_NSt9enable_ifIXntsr3std11is_integralIS6_EE5valueEiE4typeE(ptr noundef nonnull align 8 dereferenceable(32) %0, ptr %1, i32 noundef %2) unnamed_addr #4 comdat align 2 {
  %4 = alloca %"struct.boost::detail::forward", align 8
  %5 = alloca ptr, align 8
  %6 = alloca i32, align 4
  %7 = alloca %"struct.boost::detail::forward", align 8
  %8 = getelementptr inbounds nuw %"struct.boost::detail::forward", ptr %4, i32 0, i32 0
  store ptr %1, ptr %8, align 8
  store ptr %0, ptr %5, align 8, !tbaa !3
  store i32 %2, ptr %6, align 4, !tbaa !21
  %9 = load ptr, ptr %5, align 8
  call void @llvm.memcpy.p0.p0.i64(ptr align 8 %7, ptr align 8 %4, i64 8, i1 false), !tbaa.struct !54
  %10 = getelementptr inbounds nuw %"struct.boost::detail::forward", ptr %7, i32 0, i32 0
  %11 = load ptr, ptr %10, align 8
  call void @_ZN5boost10function_nIiJEEC2INS_6detail7forwardEEET_NSt9enable_ifIXntsr3std11is_integralIS5_EE5valueEiE4typeE(ptr noundef nonnull align 8 dereferenceable(32) %9, ptr %11, i32 noundef 0)
  ret void
}

; Function Attrs: mustprogress nounwind uwtable
define linkonce_odr hidden void @_ZN5boost6detail7forwardC2ERKNS_8functionIFvvEEE(ptr noundef nonnull align 8 dereferenceable(8) %0, ptr noundef nonnull align 8 dereferenceable(32) %1) unnamed_addr #5 comdat align 2 {
  %3 = alloca ptr, align 8
  %4 = alloca ptr, align 8
  store ptr %0, ptr %3, align 8, !tbaa !3
  store ptr %1, ptr %4, align 8, !tbaa !3
  %5 = load ptr, ptr %3, align 8
  %6 = getelementptr inbounds nuw %"struct.boost::detail::forward", ptr %5, i32 0, i32 0
  %7 = load ptr, ptr %4, align 8, !tbaa !3
  store ptr %7, ptr %6, align 8, !tbaa !3
  ret void
}

; Function Attrs: mustprogress uwtable
define void @_ZN5boost17execution_monitor8vexecuteERKNS_8functionIFvvEEE(ptr noundef nonnull align 8 dereferenceable(48) %0, ptr noundef nonnull align 8 dereferenceable(32) %1) #4 align 2 personality ptr @__gxx_personality_v0 {
  %3 = alloca ptr, align 8
  %4 = alloca ptr, align 8
  %5 = alloca %"class.boost::function", align 8
  %6 = alloca %"struct.boost::detail::forward", align 8
  %7 = alloca ptr, align 8
  %8 = alloca i32, align 4
  store ptr %0, ptr %3, align 8, !tbaa !3
  store ptr %1, ptr %4, align 8, !tbaa !3
  %9 = load ptr, ptr %3, align 8
  call void @llvm.lifetime.start.p0(i64 32, ptr %5) #3
  %10 = load ptr, ptr %4, align 8, !tbaa !3
  call void @_ZN5boost6detail7forwardC2ERKNS_8functionIFvvEEE(ptr noundef nonnull align 8 dereferenceable(8) %6, ptr noundef nonnull align 8 dereferenceable(32) %10)
  %11 = getelementptr inbounds nuw %"struct.boost::detail::forward", ptr %6, i32 0, i32 0
  %12 = load ptr, ptr %11, align 8
  call void @_ZN5boost8functionIFivEEC2INS_6detail7forwardEEET_NSt9enable_ifIXntsr3std11is_integralIS6_EE5valueEiE4typeE(ptr noundef nonnull align 8 dereferenceable(32) %5, ptr %12, i32 noundef 0)
  %13 = invoke noundef i32 @_ZN5boost17execution_monitor7executeERKNS_8functionIFivEEE(ptr noundef nonnull align 8 dereferenceable(48) %9, ptr noundef nonnull align 8 dereferenceable(32) %5)
          to label %14 unwind label %15

14:                                               ; preds = %2
  call void @_ZN5boost10function_nIiJEED2Ev(ptr noundef nonnull align 8 dereferenceable(32) %5) #3
  call void @llvm.lifetime.end.p0(i64 32, ptr %5) #3
  ret void

15:                                               ; preds = %2
  %16 = landingpad { ptr, i32 }
          cleanup
  %17 = extractvalue { ptr, i32 } %16, 0
  store ptr %17, ptr %7, align 8
  %18 = extractvalue { ptr, i32 } %16, 1
  store i32 %18, ptr %8, align 4
  call void @_ZN5boost10function_nIiJEED2Ev(ptr noundef nonnull align 8 dereferenceable(32) %5) #3
  call void @llvm.lifetime.end.p0(i64 32, ptr %5) #3
  br label %19

19:                                               ; preds = %15
  %20 = load ptr, ptr %7, align 8
  %21 = load i32, ptr %8, align 4
  %22 = insertvalue { ptr, i32 } poison, ptr %20, 0
  %23 = insertvalue { ptr, i32 } %22, i32 %21, 1
  resume { ptr, i32 } %23
}