; Function Attrs: mustprogress uwtable
define void @_ZN5boost17execution_monitor8vexecuteERKNS_8functionIFvvEEE(ptr nocapture noundef nonnull align 8 dereferenceable(48) %0, ptr noundef nonnull align 8 dereferenceable(32) %1) local_unnamed_addr #3 align 2 personality ptr @__gxx_personality_v0 {
  %3 = alloca %"class.boost::function", align 8
  call void @llvm.lifetime.start.p0(i64 32, ptr nonnull %3) #41
  %4 = getelementptr inbounds nuw i8, ptr %3, i64 8
  store ptr %1, ptr %4, align 8, !tbaa !32
  %5 = or disjoint i64 ptrtoint (ptr @_ZZN5boost10function_nIiJEE9assign_toINS_6detail7forwardEEEvT_E13stored_vtable to i64), 1
  %6 = inttoptr i64 %5 to ptr
  store ptr %6, ptr %3, align 8, !tbaa !64
  %7 = invoke noundef i32 @_ZN5boost17execution_monitor7executeERKNS_8functionIFivEEE(ptr noundef nonnull align 8 dereferenceable(48) %0, ptr noundef nonnull align 8 dereferenceable(32) %3)
          to label %8 unwind label %18

8:                                                ; preds = %2
  %9 = load ptr, ptr %3, align 8, !tbaa !64
  %.not.i.i = icmp ne ptr %9, null
  %10 = ptrtoint ptr %9 to i64
  %11 = and i64 %10, 1
  %.not1.i.i = icmp eq i64 %11, 0
  %or.cond = and i1 %.not.i.i, %.not1.i.i
  br i1 %or.cond, label %12, label %_ZN5boost10function_nIiJEED2Ev.exit

12:                                               ; preds = %8
  %13 = load ptr, ptr %9, align 8, !tbaa !120
  %.not.i.i.i = icmp eq ptr %13, null
  br i1 %.not.i.i.i, label %_ZN5boost10function_nIiJEED2Ev.exit, label %14

14:                                               ; preds = %12
  invoke void %13(ptr noundef nonnull align 8 dereferenceable(24) %4, ptr noundef nonnull align 8 dereferenceable(24) %4, i32 noundef 2)
          to label %_ZN5boost10function_nIiJEED2Ev.exit unwind label %15

15:                                               ; preds = %14
  %16 = landingpad { ptr, i32 }
          catch ptr null
  %17 = extractvalue { ptr, i32 } %16, 0
  call void @__clang_call_terminate(ptr %17) #44
  unreachable

_ZN5boost10function_nIiJEED2Ev.exit:              ; preds = %12, %14, %8
  call void @llvm.lifetime.end.p0(i64 32, ptr nonnull %3) #41
  ret void

18:                                               ; preds = %2
  %19 = landingpad { ptr, i32 }
          cleanup
  call void @_ZN5boost10function_nIiJEED2Ev(ptr noundef nonnull align 8 dereferenceable(32) %3) #41
  call void @llvm.lifetime.end.p0(i64 32, ptr nonnull %3) #41
  resume { ptr, i32 } %19
}